; Function Attrs: nounwind uwtable
define ptr @l_Lean_IR_formatParams(ptr noundef readonly captures(none) %0) local_unnamed_addr #0 {
  %2 = getelementptr i8, ptr %0, i64 8
  %.val.i = load i64, ptr %2, align 8, !tbaa !14
  %.mask.i = and i64 %.val.i, 9223372036854775807
  %.not.i = icmp eq i64 %.mask.i, 0
  br i1 %.not.i, label %l_Lean_IR_formatArray___at_Lean_IR_formatParams___spec__1.exit, label %lean_dec.exit.i

lean_dec.exit.i:                                  ; preds = %1
  %3 = tail call ptr @l_Array_foldlMUnsafe_fold___at_Lean_IR_formatParams___spec__2(ptr noundef nonnull readonly %0, i64 noundef 0, i64 noundef %.mask.i, ptr noundef nonnull inttoptr (i64 1 to ptr))
  br label %l_Lean_IR_formatArray___at_Lean_IR_formatParams___spec__1.exit

l_Lean_IR_formatArray___at_Lean_IR_formatParams___spec__1.exit: ; preds = %1, %lean_dec.exit.i
  %.0.i = phi ptr [ %3, %lean_dec.exit.i ], [ inttoptr (i64 1 to ptr), %1 ]
  ret ptr %.0.i
}